target datalayout = "e-m:e-p270:32:32-p271:32:32-p272:64:64-i64:64-i128:128-f80:128-n8:16:32:64-S128"
target triple = "x86_64-pc-linux-gnu"

%struct.Nwk_Obj_t_ = type { ptr, ptr, ptr, %union.anon, i32, i32, i32, i32, float, float, float, i32, i32, i32, ptr }
%union.anon = type { ptr }
%struct.Nwk_Man_t_ = type { ptr, ptr, ptr, ptr, ptr, [5 x i32], i32, ptr, ptr, ptr, ptr, ptr, i32, i32, i32, i32, i32 }

; Function Attrs: inlinehint nounwind uwtable
define internal i32 @Nwk_ObjSetPred(ptr noundef %0, ptr noundef %1) #2 {
  %3 = alloca ptr, align 8
  %4 = alloca ptr, align 8
  store ptr %0, ptr %3, align 8, !tbaa !3
  store ptr %1, ptr %4, align 8, !tbaa !3
  %5 = load ptr, ptr %4, align 8, !tbaa !3
  %6 = load ptr, ptr %3, align 8, !tbaa !3
  %7 = getelementptr inbounds nuw %struct.Nwk_Obj_t_, ptr %6, i32 0, i32 2
  store ptr %5, ptr %7, align 8, !tbaa !32
  ret i32 1
}

; Function Attrs: inlinehint nounwind uwtable
define internal void @Nwk_ObjClearFlow(ptr noundef %0) #2 {
  %2 = alloca ptr, align 8
  store ptr %0, ptr %2, align 8, !tbaa !3
  %3 = load ptr, ptr %2, align 8, !tbaa !3
  %4 = getelementptr inbounds nuw %struct.Nwk_Obj_t_, ptr %3, i32 0, i32 4
  %5 = load i32, ptr %4, align 8
  %6 = and i32 %5, -33
  %7 = or i32 %6, 0
  store i32 %7, ptr %4, align 8
  ret void
}

; Function Attrs: inlinehint nounwind uwtable
define internal ptr @Nwk_ObjPred(ptr noundef %0) #2 {
  %2 = alloca ptr, align 8
  store ptr %0, ptr %2, align 8, !tbaa !3
  %3 = load ptr, ptr %2, align 8, !tbaa !3
  %4 = getelementptr inbounds nuw %struct.Nwk_Obj_t_, ptr %3, i32 0, i32 2
  %5 = load ptr, ptr %4, align 8, !tbaa !32
  ret ptr %5
}

; Function Attrs: inlinehint nounwind uwtable
define internal i32 @Nwk_ObjIsCi(ptr noundef %0) #2 {
  %2 = alloca ptr, align 8
  store ptr %0, ptr %2, align 8, !tbaa !3
  %3 = load ptr, ptr %2, align 8, !tbaa !3
  %4 = getelementptr inbounds nuw %struct.Nwk_Obj_t_, ptr %3, i32 0, i32 4
  %5 = load i32, ptr %4, align 8
  %6 = and i32 %5, 7
  %7 = icmp eq i32 %6, 1
  %8 = zext i1 %7 to i32
  ret i32 %8
}

; Function Attrs: inlinehint nounwind uwtable
define internal i32 @Nwk_ObjHasFlow(ptr noundef %0) #2 {
  %2 = alloca ptr, align 8
  store ptr %0, ptr %2, align 8, !tbaa !3
  %3 = load ptr, ptr %2, align 8, !tbaa !3
  %4 = getelementptr inbounds nuw %struct.Nwk_Obj_t_, ptr %3, i32 0, i32 4
  %5 = load i32, ptr %4, align 8
  %6 = lshr i32 %5, 5
  %7 = and i32 %6, 1
  ret i32 %7
}

; Function Attrs: inlinehint nounwind uwtable
define internal i32 @Nwk_ObjIsSink(ptr noundef %0) #2 {
  %2 = alloca ptr, align 8
  store ptr %0, ptr %2, align 8, !tbaa !3
  %3 = load ptr, ptr %2, align 8, !tbaa !3
  %4 = getelementptr inbounds nuw %struct.Nwk_Obj_t_, ptr %3, i32 0, i32 4
  %5 = load i32, ptr %4, align 8
  %6 = lshr i32 %5, 4
  %7 = and i32 %6, 1
  ret i32 %7
}

; Function Attrs: inlinehint nounwind uwtable
define internal void @Nwk_ObjSetVisitedTop(ptr noundef %0) #2 {
  %2 = alloca ptr, align 8
  store ptr %0, ptr %2, align 8, !tbaa !3
  %3 = load ptr, ptr %2, align 8, !tbaa !3
  %4 = getelementptr inbounds nuw %struct.Nwk_Obj_t_, ptr %3, i32 0, i32 6
  %5 = load i32, ptr %4, align 8, !tbaa !22
  %6 = load ptr, ptr %2, align 8, !tbaa !3
  %7 = getelementptr inbounds nuw %struct.Nwk_Obj_t_, ptr %6, i32 0, i32 0
  %8 = load ptr, ptr %7, align 8, !tbaa !23
  %9 = getelementptr inbounds nuw %struct.Nwk_Man_t_, ptr %8, i32 0, i32 12
  %10 = load i32, ptr %9, align 8, !tbaa !24
  %11 = sub nsw i32 %10, 2
  %12 = icmp slt i32 %5, %11
  br i1 %12, label %13, label %22

13:                                               ; preds = %1
  %14 = load ptr, ptr %2, align 8, !tbaa !3
  %15 = getelementptr inbounds nuw %struct.Nwk_Obj_t_, ptr %14, i32 0, i32 0
  %16 = load ptr, ptr %15, align 8, !tbaa !23
  %17 = getelementptr inbounds nuw %struct.Nwk_Man_t_, ptr %16, i32 0, i32 12
  %18 = load i32, ptr %17, align 8, !tbaa !24
  %19 = sub nsw i32 %18, 1
  %20 = load ptr, ptr %2, align 8, !tbaa !3
  %21 = getelementptr inbounds nuw %struct.Nwk_Obj_t_, ptr %20, i32 0, i32 6
  store i32 %19, ptr %21, align 8, !tbaa !22
  br label %43

22:                                               ; preds = %1
  %23 = load ptr, ptr %2, align 8, !tbaa !3
  %24 = getelementptr inbounds nuw %struct.Nwk_Obj_t_, ptr %23, i32 0, i32 6
  %25 = load i32, ptr %24, align 8, !tbaa !22
  %26 = load ptr, ptr %2, align 8, !tbaa !3
  %27 = getelementptr inbounds nuw %struct.Nwk_Obj_t_, ptr %26, i32 0, i32 0
  %28 = load ptr, ptr %27, align 8, !tbaa !23
  %29 = getelementptr inbounds nuw %struct.Nwk_Man_t_, ptr %28, i32 0, i32 12
  %30 = load i32, ptr %29, align 8, !tbaa !24
  %31 = sub nsw i32 %30, 2
  %32 = icmp eq i32 %25, %31
  br i1 %32, label %33, label %41

33:                                               ; preds = %22
  %34 = load ptr, ptr %2, align 8, !tbaa !3
  %35 = getelementptr inbounds nuw %struct.Nwk_Obj_t_, ptr %34, i32 0, i32 0
  %36 = load ptr, ptr %35, align 8, !tbaa !23
  %37 = getelementptr inbounds nuw %struct.Nwk_Man_t_, ptr %36, i32 0, i32 12
  %38 = load i32, ptr %37, align 8, !tbaa !24
  %39 = load ptr, ptr %2, align 8, !tbaa !3
  %40 = getelementptr inbounds nuw %struct.Nwk_Obj_t_, ptr %39, i32 0, i32 6
  store i32 %38, ptr %40, align 8, !tbaa !22
  br label %42

41:                                               ; preds = %22
  br label %42

42:                                               ; preds = %41, %33
  br label %43

43:                                               ; preds = %42, %13
  ret void
}

; Function Attrs: inlinehint nounwind uwtable
define internal i32 @Nwk_ObjVisitedTop(ptr noundef %0) #2 {
  %2 = alloca ptr, align 8
  store ptr %0, ptr %2, align 8, !tbaa !3
  %3 = load ptr, ptr %2, align 8, !tbaa !3
  %4 = getelementptr inbounds nuw %struct.Nwk_Obj_t_, ptr %3, i32 0, i32 6
  %5 = load i32, ptr %4, align 8, !tbaa !22
  %6 = load ptr, ptr %2, align 8, !tbaa !3
  %7 = getelementptr inbounds nuw %struct.Nwk_Obj_t_, ptr %6, i32 0, i32 0
  %8 = load ptr, ptr %7, align 8, !tbaa !23
  %9 = getelementptr inbounds nuw %struct.Nwk_Man_t_, ptr %8, i32 0, i32 12
  %10 = load i32, ptr %9, align 8, !tbaa !24
  %11 = sub nsw i32 %10, 1
  %12 = icmp eq i32 %5, %11
  br i1 %12, label %23, label %13

13:                                               ; preds = %1
  %14 = load ptr, ptr %2, align 8, !tbaa !3
  %15 = getelementptr inbounds nuw %struct.Nwk_Obj_t_, ptr %14, i32 0, i32 6
  %16 = load i32, ptr %15, align 8, !tbaa !22
  %17 = load ptr, ptr %2, align 8, !tbaa !3
  %18 = getelementptr inbounds nuw %struct.Nwk_Obj_t_, ptr %17, i32 0, i32 0
  %19 = load ptr, ptr %18, align 8, !tbaa !23
  %20 = getelementptr inbounds nuw %struct.Nwk_Man_t_, ptr %19, i32 0, i32 12
  %21 = load i32, ptr %20, align 8, !tbaa !24
  %22 = icmp eq i32 %16, %21
  br label %23

23:                                               ; preds = %13, %1
  %24 = phi i1 [ true, %1 ], [ %22, %13 ]
  %25 = zext i1 %24 to i32
  ret i32 %25
}

; Function Attrs: nounwind uwtable
define internal i32 @Nwk_ManPushForwardTop_rec(ptr noundef %0, ptr noundef %1) #0 {
  %3 = alloca i32, align 4
  %4 = alloca ptr, align 8
  %5 = alloca ptr, align 8
  %6 = alloca ptr, align 8
  %7 = alloca i32, align 4
  %8 = alloca i32, align 4
  store ptr %0, ptr %4, align 8, !tbaa !3
  store ptr %1, ptr %5, align 8, !tbaa !3
  call void @llvm.lifetime.start.p0(i64 8, ptr %6) #9
  call void @llvm.lifetime.start.p0(i64 4, ptr %7) #9
  %9 = load ptr, ptr %4, align 8, !tbaa !3
  %10 = call i32 @Nwk_ObjVisitedTop(ptr noundef %9)
  %11 = icmp ne i32 %10, 0
  br i1 %11, label %12, label %13

12:                                               ; preds = %2
  store i32 0, ptr %3, align 4
  store i32 1, ptr %8, align 4
  br label %71

13:                                               ; preds = %2
  %14 = load ptr, ptr %4, align 8, !tbaa !3
  call void @Nwk_ObjSetVisitedTop(ptr noundef %14)
  %15 = load ptr, ptr %4, align 8, !tbaa !3
  %16 = call i32 @Nwk_ObjIsSink(ptr noundef %15)
  %17 = icmp ne i32 %16, 0
  br i1 %17, label %18, label %19

18:                                               ; preds = %13
  store i32 1, ptr %3, align 4
  store i32 1, ptr %8, align 4
  br label %71

19:                                               ; preds = %13
  store i32 0, ptr %7, align 4, !tbaa !8
  br label %20

20:                                               ; preds = %48, %19
  %21 = load i32, ptr %7, align 4, !tbaa !8
  %22 = load ptr, ptr %4, align 8, !tbaa !3
  %23 = getelementptr inbounds nuw %struct.Nwk_Obj_t_, ptr %22, i32 0, i32 12
  %24 = load i32, ptr %23, align 8, !tbaa !19
  %25 = icmp slt i32 %21, %24
  br i1 %25, label %26, label %39

26:                                               ; preds = %20
  %27 = load ptr, ptr %4, align 8, !tbaa !3
  %28 = getelementptr inbounds nuw %struct.Nwk_Obj_t_, ptr %27, i32 0, i32 14
  %29 = load ptr, ptr %28, align 8, !tbaa !16
  %30 = load ptr, ptr %4, align 8, !tbaa !3
  %31 = getelementptr inbounds nuw %struct.Nwk_Obj_t_, ptr %30, i32 0, i32 11
  %32 = load i32, ptr %31, align 4, !tbaa !10
  %33 = load i32, ptr %7, align 4, !tbaa !8
  %34 = add nsw i32 %32, %33
  %35 = sext i32 %34 to i64
  %36 = getelementptr inbounds ptr, ptr %29, i64 %35
  %37 = load ptr, ptr %36, align 8, !tbaa !3
  store ptr %37, ptr %6, align 8, !tbaa !3
  %38 = icmp ne ptr %37, null
  br label %39

39:                                               ; preds = %26, %20
  %40 = phi i1 [ false, %20 ], [ %38, %26 ]
  br i1 %40, label %41, label %51

41:                                               ; preds = %39
  %42 = load ptr, ptr %6, align 8, !tbaa !3
  %43 = load ptr, ptr %5, align 8, !tbaa !3
  %44 = call i32 @Nwk_ManPushForwardBot_rec(ptr noundef %42, ptr noundef %43)
  %45 = icmp ne i32 %44, 0
  br i1 %45, label %46, label %47

46:                                               ; preds = %41
  store i32 1, ptr %3, align 4
  store i32 1, ptr %8, align 4
  br label %71

47:                                               ; preds = %41
  br label %48

48:                                               ; preds = %47
  %49 = load i32, ptr %7, align 4, !tbaa !8
  %50 = add nsw i32 %49, 1
  store i32 %50, ptr %7, align 4, !tbaa !8
  br label %20, !llvm.loop !74

51:                                               ; preds = %39
  %52 = load ptr, ptr %4, align 8, !tbaa !3
  %53 = call i32 @Nwk_ObjHasFlow(ptr noundef %52)
  %54 = icmp ne i32 %53, 0
  br i1 %54, label %55, label %70

55:                                               ; preds = %51
  %56 = load ptr, ptr %4, align 8, !tbaa !3
  %57 = call i32 @Nwk_ObjIsCi(ptr noundef %56)
  %58 = icmp ne i32 %57, 0
  br i1 %58, label %70, label %59

59:                                               ; preds = %55
  %60 = load ptr, ptr %4, align 8, !tbaa !3
  %61 = load ptr, ptr %4, align 8, !tbaa !3
  %62 = call ptr @Nwk_ObjPred(ptr noundef %61)
  %63 = call i32 @Nwk_ManPushForwardBot_rec(ptr noundef %60, ptr noundef %62)
  %64 = icmp ne i32 %63, 0
  br i1 %64, label %65, label %69

65:                                               ; preds = %59
  %66 = load ptr, ptr %4, align 8, !tbaa !3
  call void @Nwk_ObjClearFlow(ptr noundef %66)
  %67 = load ptr, ptr %4, align 8, !tbaa !3
  %68 = call i32 @Nwk_ObjSetPred(ptr noundef %67, ptr noundef null)
  store i32 %68, ptr %3, align 4
  store i32 1, ptr %8, align 4
  br label %71

69:                                               ; preds = %59
  br label %70

70:                                               ; preds = %69, %55, %51
  store i32 0, ptr %3, align 4
  store i32 1, ptr %8, align 4
  br label %71

71:                                               ; preds = %70, %65, %46, %18, %12
  call void @llvm.lifetime.end.p0(i64 4, ptr %7) #9
  call void @llvm.lifetime.end.p0(i64 8, ptr %6) #9
  %72 = load i32, ptr %3, align 4
  ret i32 %72
}