; Function Attrs: nofree nosync nounwind memory(readwrite, inaccessiblemem: none) uwtable
define internal fastcc range(i32 0, 2) i32 @Nwk_ManPushForwardTop_rec(ptr noundef %0, ptr noundef %1) unnamed_addr #0 {
  %.val28 = load ptr, ptr %0, align 8, !tbaa !20
  %3 = getelementptr i8, ptr %0, i64 40
  %.val29 = load i32, ptr %3, align 8, !tbaa !21
  %4 = getelementptr i8, ptr %.val28, i64 104
  %.val28.val = load i32, ptr %4, align 8, !tbaa !22
  %5 = add nsw i32 %.val28.val, -1
  %6 = icmp ne i32 %.val29, %5
  %7 = icmp ne i32 %.val29, %.val28.val
  %narrow.i.not = and i1 %7, %6
  br i1 %narrow.i.not, label %8, label %.loopexit

8:                                                ; preds = %2
  %9 = add nsw i32 %.val28.val, -2
  %10 = icmp slt i32 %.val29, %9
  br i1 %10, label %.sink.split.i, label %11

11:                                               ; preds = %8
  %12 = icmp eq i32 %.val29, %9
  br i1 %12, label %.sink.split.i, label %Nwk_ObjSetVisitedTop.exit

.sink.split.i:                                    ; preds = %8, %11
  %.sink.i = phi i32 [ %.val28.val, %11 ], [ %5, %8 ]
  store i32 %.sink.i, ptr %3, align 8, !tbaa !21
  br label %Nwk_ObjSetVisitedTop.exit

Nwk_ObjSetVisitedTop.exit:                        ; preds = %11, %.sink.split.i
  %13 = getelementptr i8, ptr %0, i64 32
  %.val25 = load i32, ptr %13, align 8
  %14 = and i32 %.val25, 16
  %.not19 = icmp eq i32 %14, 0
  br i1 %.not19, label %.preheader, label %.loopexit

.preheader:                                       ; preds = %Nwk_ObjSetVisitedTop.exit
  %15 = getelementptr inbounds nuw i8, ptr %0, i64 64
  %16 = load i32, ptr %15, align 8, !tbaa !18
  %17 = icmp sgt i32 %16, 0
  br i1 %17, label %.lr.ph, label %.critedge

.lr.ph:                                           ; preds = %.preheader
  %18 = getelementptr inbounds nuw i8, ptr %0, i64 72
  %19 = getelementptr inbounds nuw i8, ptr %0, i64 60
  br label %24

20:                                               ; preds = %31
  %21 = add nuw nsw i32 %.032, 1
  %22 = load i32, ptr %15, align 8, !tbaa !18
  %23 = icmp slt i32 %21, %22
  br i1 %23, label %24, label %.critedge.loopexit, !llvm.loop !73

24:                                               ; preds = %.lr.ph, %20
  %.032 = phi i32 [ 0, %.lr.ph ], [ %21, %20 ]
  %25 = load ptr, ptr %18, align 8, !tbaa !13
  %26 = load i32, ptr %19, align 4, !tbaa !3
  %27 = add nsw i32 %26, %.032
  %28 = sext i32 %27 to i64
  %29 = getelementptr inbounds ptr, ptr %25, i64 %28
  %30 = load ptr, ptr %29, align 8, !tbaa !14
  %.not20 = icmp eq ptr %30, null
  br i1 %.not20, label %.critedge.loopexit, label %31

31:                                               ; preds = %24
  %32 = tail call fastcc i32 @Nwk_ManPushForwardBot_rec(ptr noundef nonnull %30, ptr noundef %1)
  %.not24 = icmp eq i32 %32, 0
  br i1 %.not24, label %20, label %.loopexit

.critedge.loopexit:                               ; preds = %20, %24
  %.val.pre = load i32, ptr %13, align 8
  br label %.critedge

.critedge:                                        ; preds = %.critedge.loopexit, %.preheader
  %.val = phi i32 [ %.val.pre, %.critedge.loopexit ], [ %.val25, %.preheader ]
  %33 = and i32 %.val, 32
  %.not21 = icmp eq i32 %33, 0
  %34 = and i32 %.val, 7
  %.not = icmp eq i32 %34, 1
  %or.cond = or i1 %.not21, %.not
  br i1 %or.cond, label %.loopexit, label %35

35:                                               ; preds = %.critedge
  %36 = getelementptr i8, ptr %0, i64 16
  %.val27 = load ptr, ptr %36, align 8, !tbaa !31
  %37 = tail call fastcc i32 @Nwk_ManPushForwardBot_rec(ptr noundef nonnull %0, ptr noundef %.val27)
  %.not23 = icmp eq i32 %37, 0
  br i1 %.not23, label %.loopexit, label %38

38:                                               ; preds = %35
  %39 = load i32, ptr %13, align 8
  %40 = and i32 %39, -33
  store i32 %40, ptr %13, align 8
  store ptr null, ptr %36, align 8, !tbaa !31
  br label %.loopexit

.loopexit:                                        ; preds = %31, %.critedge, %35, %Nwk_ObjSetVisitedTop.exit, %2, %38
  %.017 = phi i32 [ 1, %38 ], [ 0, %2 ], [ 1, %Nwk_ObjSetVisitedTop.exit ], [ 0, %35 ], [ 0, %.critedge ], [ 1, %31 ]
  ret i32 %.017
}